; Function Attrs: mustprogress nounwind uwtable
define dso_local void @_ZN4llvm14CombinerHelper14applyBuildFnMOERKNS_14MachineOperandERSt8functionIFvRNS_16MachineIRBuilderEEE(ptr nocapture noundef nonnull readonly align 8 dereferenceable(72) %0, ptr nocapture noundef nonnull readonly align 8 dereferenceable(32) %1, ptr noundef nonnull align 8 dereferenceable(32) %2) local_unnamed_addr #0 align 2 {
  %4 = getelementptr inbounds nuw i8, ptr %1, i64 4
  %5 = load i32, ptr %4, align 4
  %6 = getelementptr inbounds nuw i8, ptr %0, i64 8
  %7 = load ptr, ptr %6, align 8
  %8 = tail call noundef ptr @_ZN4llvm20getDefIgnoringCopiesENS_8RegisterERKNS_19MachineRegisterInfoE(i32 %5, ptr noundef nonnull align 8 dereferenceable(512) %7) #27
  %9 = getelementptr inbounds nuw i8, ptr %2, i64 16
  %10 = load ptr, ptr %9, align 8
  %.not.i.i = icmp eq ptr %10, null
  br i1 %.not.i.i, label %11, label %_ZNKSt8functionIFvRN4llvm16MachineIRBuilderEEEclES2_.exit

11:                                               ; preds = %3
  tail call void @_ZSt25__throw_bad_function_callv() #29
  unreachable

_ZNKSt8functionIFvRN4llvm16MachineIRBuilderEEEclES2_.exit: ; preds = %3
  %12 = load ptr, ptr %0, align 8
  %13 = getelementptr inbounds nuw i8, ptr %2, i64 24
  %14 = load ptr, ptr %13, align 8
  tail call void %14(ptr noundef nonnull align 8 dereferenceable(16) %2, ptr noundef nonnull align 8 dereferenceable(88) %12) #27
  tail call void @_ZN4llvm12MachineInstr15eraseFromParentEv(ptr noundef nonnull align 8 dereferenceable(70) %8) #27
  ret void
}